target datalayout = "e-m:e-p270:32:32-p271:32:32-p272:64:64-i64:64-i128:128-f80:128-n8:16:32:64-S128"
target triple = "x86_64-pc-linux-gnu"

; Function Attrs: nounwind uwtable
define void @bitReverceOrder(ptr noundef %0, i32 noundef %1) #0 {
  %3 = alloca ptr, align 8
  %4 = alloca i32, align 4
  %5 = alloca i32, align 4
  store ptr %0, ptr %3, align 8, !tbaa !3
  store i32 %1, ptr %4, align 4, !tbaa !8
  call void @llvm.lifetime.start.p0(i64 4, ptr %5) #7
  %6 = load i32, ptr %4, align 4, !tbaa !8
  %7 = sub nsw i32 %6, 1
  store i32 %7, ptr %5, align 4, !tbaa !8
  br label %8

8:                                                ; preds = %15, %2
  %9 = load i32, ptr %5, align 4, !tbaa !8
  %10 = icmp sge i32 %9, 0
  br i1 %10, label %11, label %18

11:                                               ; preds = %8
  %12 = load ptr, ptr %3, align 8, !tbaa !3
  %13 = load i32, ptr %4, align 4, !tbaa !8
  %14 = load i32, ptr %5, align 4, !tbaa !8
  call void @Kit_TruthChangePhase_64bit(ptr noundef %12, i32 noundef %13, i32 noundef %14)
  br label %15

15:                                               ; preds = %11
  %16 = load i32, ptr %5, align 4, !tbaa !8
  %17 = add nsw i32 %16, -1
  store i32 %17, ptr %5, align 4, !tbaa !8
  br label %8, !llvm.loop !45

18:                                               ; preds = %8
  call void @llvm.lifetime.end.p0(i64 4, ptr %5) #7
  ret void
}

; Function Attrs: nounwind uwtable
define void @luckyCanonicizer_final_fast_16Vars1(ptr noundef %0, i32 noundef %1, i32 noundef %2, ptr noundef %3, ptr noundef %4, ptr noundef %5) #0 {
  %7 = alloca ptr, align 8
  %8 = alloca i32, align 4
  %9 = alloca i32, align 4
  %10 = alloca ptr, align 8
  %11 = alloca ptr, align 8
  %12 = alloca ptr, align 8
  store ptr %0, ptr %7, align 8, !tbaa !3
  store i32 %1, ptr %8, align 4, !tbaa !8
  store i32 %2, ptr %9, align 4, !tbaa !8
  store ptr %3, ptr %10, align 8, !tbaa !12
  store ptr %4, ptr %11, align 8, !tbaa !10
  store ptr %5, ptr %12, align 8, !tbaa !12
  %13 = load ptr, ptr %7, align 8, !tbaa !3
  %14 = load i32, ptr %8, align 4, !tbaa !8
  %15 = load ptr, ptr %11, align 8, !tbaa !10
  %16 = load ptr, ptr %10, align 8, !tbaa !12
  %17 = call i32 @Kit_TruthSemiCanonicize_Yasha1(ptr noundef %13, i32 noundef %14, ptr noundef %15, ptr noundef %16)
  %18 = load ptr, ptr %12, align 8, !tbaa !12
  store i32 %17, ptr %18, align 4, !tbaa !8
  %19 = load ptr, ptr %7, align 8, !tbaa !3
  %20 = load i32, ptr %8, align 4, !tbaa !8
  %21 = load i32, ptr %9, align 4, !tbaa !8
  %22 = load ptr, ptr %10, align 8, !tbaa !12
  %23 = load ptr, ptr %11, align 8, !tbaa !10
  %24 = load ptr, ptr %12, align 8, !tbaa !12
  call void @luckyCanonicizerS_F_first_16Vars11(ptr noundef %19, i32 noundef %20, i32 noundef %21, ptr noundef %22, ptr noundef %23, ptr noundef %24)
  %25 = load ptr, ptr %7, align 8, !tbaa !3
  %26 = load i32, ptr %8, align 4, !tbaa !8
  call void @bitReverceOrder(ptr noundef %25, i32 noundef %26)
  %27 = load i32, ptr %8, align 4, !tbaa !8
  %28 = shl i32 1, %27
  %29 = sub nsw i32 %28, 1
  %30 = load ptr, ptr %12, align 8, !tbaa !12
  %31 = load i32, ptr %30, align 4, !tbaa !8
  %32 = xor i32 %31, %29
  store i32 %32, ptr %30, align 4, !tbaa !8
  %33 = load ptr, ptr %7, align 8, !tbaa !3
  %34 = load i32, ptr %8, align 4, !tbaa !8
  %35 = load i32, ptr %9, align 4, !tbaa !8
  %36 = load ptr, ptr %10, align 8, !tbaa !12
  %37 = load ptr, ptr %11, align 8, !tbaa !10
  %38 = load ptr, ptr %12, align 8, !tbaa !12
  call void @luckyCanonicizerS_F_first_16Vars11(ptr noundef %33, i32 noundef %34, i32 noundef %35, ptr noundef %36, ptr noundef %37, ptr noundef %38)
  ret void
}