; Function Attrs: nounwind uwtable
define void @luckyCanonicizer_final_fast_16Vars1(ptr noundef %0, i32 noundef %1, i32 noundef %2, ptr noundef %3, ptr noundef %4, ptr noundef captures(none) initializes((0, 4)) %5) local_unnamed_addr #0 {
  %7 = tail call i32 @Kit_TruthSemiCanonicize_Yasha1(ptr noundef %0, i32 noundef %1, ptr noundef %4, ptr noundef %3) #9
  store i32 %7, ptr %5, align 4, !tbaa !6
  tail call void @luckyCanonicizerS_F_first_16Vars11(ptr noundef %0, i32 noundef %1, i32 noundef %2, ptr noundef %3, ptr noundef %4, ptr noundef nonnull %5)
  %8 = icmp sgt i32 %1, 0
  br i1 %8, label %.lr.ph.i, label %bitReverceOrder.exit

.lr.ph.i:                                         ; preds = %6, %.lr.ph.i
  %.0.in5.i = phi i32 [ %.0.i, %.lr.ph.i ], [ %1, %6 ]
  %.0.i = add nsw i32 %.0.in5.i, -1
  tail call void @Kit_TruthChangePhase_64bit(ptr noundef %0, i32 noundef %1, i32 noundef %.0.i) #9
  %9 = icmp samesign ugt i32 %.0.in5.i, 1
  br i1 %9, label %.lr.ph.i, label %bitReverceOrder.exit, !llvm.loop !38

bitReverceOrder.exit:                             ; preds = %.lr.ph.i, %6
  %notmask = shl nsw i32 -1, %1
  %10 = load i32, ptr %5, align 4, !tbaa !6
  %11 = xor i32 %notmask, %10
  %12 = xor i32 %11, -1
  store i32 %12, ptr %5, align 4, !tbaa !6
  tail call void @luckyCanonicizerS_F_first_16Vars11(ptr noundef %0, i32 noundef %1, i32 noundef %2, ptr noundef %3, ptr noundef %4, ptr noundef nonnull %5)
  ret void
}